target datalayout = "e-m:e-p270:32:32-p271:32:32-p272:64:64-i64:64-i128:128-f80:128-n8:16:32:64-S128"
target triple = "x86_64-pc-linux-gnu"

%"struct.Yosys::RTLIL::SigSpec" = type { i32, i64, %"class.std::vector.389", %"class.std::vector.394" }
%"class.std::vector.389" = type { %"struct.std::_Vector_base.390" }
%"struct.std::_Vector_base.390" = type { %"struct.std::_Vector_base<Yosys::RTLIL::SigChunk, std::allocator<Yosys::RTLIL::SigChunk>>::_Vector_impl" }
%"struct.std::_Vector_base<Yosys::RTLIL::SigChunk, std::allocator<Yosys::RTLIL::SigChunk>>::_Vector_impl" = type { %"struct.std::_Vector_base<Yosys::RTLIL::SigChunk, std::allocator<Yosys::RTLIL::SigChunk>>::_Vector_impl_data" }
%"struct.std::_Vector_base<Yosys::RTLIL::SigChunk, std::allocator<Yosys::RTLIL::SigChunk>>::_Vector_impl_data" = type { ptr, ptr, ptr }
%"class.std::vector.394" = type { %"struct.std::_Vector_base.395" }
%"struct.std::_Vector_base.395" = type { %"struct.std::_Vector_base<Yosys::RTLIL::SigBit, std::allocator<Yosys::RTLIL::SigBit>>::_Vector_impl" }
%"struct.std::_Vector_base<Yosys::RTLIL::SigBit, std::allocator<Yosys::RTLIL::SigBit>>::_Vector_impl" = type { %"struct.std::_Vector_base<Yosys::RTLIL::SigBit, std::allocator<Yosys::RTLIL::SigBit>>::_Vector_impl_data" }
%"struct.std::_Vector_base<Yosys::RTLIL::SigBit, std::allocator<Yosys::RTLIL::SigBit>>::_Vector_impl_data" = type { ptr, ptr, ptr }
%"struct.Yosys::Macc::port_t" = type <{ %"struct.Yosys::RTLIL::SigSpec", %"struct.Yosys::RTLIL::SigSpec", i8, i8, [6 x i8] }>

; Function Attrs: mustprogress nounwind uwtable
define linkonce_odr noundef i32 @_ZNK5Yosys5RTLIL7SigSpec4sizeEv(ptr noundef nonnull align 8 dereferenceable(64) %0) #5 comdat align 2 {
  %2 = alloca ptr, align 8
  store ptr %0, ptr %2, align 8
  %3 = load ptr, ptr %2, align 8
  %4 = getelementptr inbounds %"struct.Yosys::RTLIL::SigSpec", ptr %3, i32 0, i32 0
  %5 = load i32, ptr %4, align 8
  ret i32 %5
}

; Function Attrs: mustprogress uwtable
define linkonce_odr noundef zeroext i1 @_ZNK5Yosys5RTLIL7SigSpecneERKS1_(ptr noundef nonnull align 8 dereferenceable(64) %0, ptr noundef nonnull align 8 dereferenceable(64) %1) #4 comdat align 2 {
  %3 = alloca ptr, align 8
  %4 = alloca ptr, align 8
  store ptr %0, ptr %3, align 8
  store ptr %1, ptr %4, align 8
  %5 = load ptr, ptr %3, align 8
  %6 = load ptr, ptr %4, align 8
  %7 = call noundef zeroext i1 @_ZNK5Yosys5RTLIL7SigSpeceqERKS1_(ptr noundef nonnull align 8 dereferenceable(64) %5, ptr noundef nonnull align 8 dereferenceable(64) %6)
  %8 = xor i1 %7, true
  ret i1 %8
}

; Function Attrs: mustprogress nounwind uwtable
define linkonce_odr noundef i32 @_ZN5Yosys7GetSizeINS_5RTLIL7SigSpecEEEiRKT_(ptr noundef nonnull align 8 dereferenceable(64) %0) #5 comdat {
  %2 = alloca ptr, align 8
  store ptr %0, ptr %2, align 8
  %3 = load ptr, ptr %2, align 8
  %4 = call noundef i32 @_ZNK5Yosys5RTLIL7SigSpec4sizeEv(ptr noundef nonnull align 8 dereferenceable(64) %3)
  ret i32 %4
}

; Function Attrs: mustprogress uwtable
define internal noundef zeroext i1 @_ZN12_GLOBAL__N_111ShareWorker14cmp_macc_portsERKN5Yosys4Macc6port_tES5_(ptr noundef nonnull align 8 dereferenceable(130) %0, ptr noundef nonnull align 8 dereferenceable(130) %1) #4 align 2 {
  %3 = alloca i1, align 1
  %4 = alloca ptr, align 8
  %5 = alloca ptr, align 8
  %6 = alloca i8, align 1
  %7 = alloca i8, align 1
  %8 = alloca i32, align 4
  %9 = alloca i32, align 4
  store ptr %0, ptr %4, align 8
  store ptr %1, ptr %5, align 8
  %10 = load ptr, ptr %4, align 8
  %11 = getelementptr inbounds %"struct.Yosys::Macc::port_t", ptr %10, i32 0, i32 0
  %12 = call noundef i32 @_ZN5Yosys7GetSizeINS_5RTLIL7SigSpecEEEiRKT_(ptr noundef nonnull align 8 dereferenceable(64) %11)
  %13 = icmp ne i32 %12, 0
  br i1 %13, label %14, label %19

14:                                               ; preds = %2
  %15 = load ptr, ptr %4, align 8
  %16 = getelementptr inbounds %"struct.Yosys::Macc::port_t", ptr %15, i32 0, i32 1
  %17 = call noundef i32 @_ZN5Yosys7GetSizeINS_5RTLIL7SigSpecEEEiRKT_(ptr noundef nonnull align 8 dereferenceable(64) %16)
  %18 = icmp ne i32 %17, 0
  br label %19

19:                                               ; preds = %14, %2
  %20 = phi i1 [ false, %2 ], [ %18, %14 ]
  %21 = zext i1 %20 to i8
  store i8 %21, ptr %6, align 1
  %22 = load ptr, ptr %5, align 8
  %23 = getelementptr inbounds %"struct.Yosys::Macc::port_t", ptr %22, i32 0, i32 0
  %24 = call noundef i32 @_ZN5Yosys7GetSizeINS_5RTLIL7SigSpecEEEiRKT_(ptr noundef nonnull align 8 dereferenceable(64) %23)
  %25 = icmp ne i32 %24, 0
  br i1 %25, label %26, label %31

26:                                               ; preds = %19
  %27 = load ptr, ptr %5, align 8
  %28 = getelementptr inbounds %"struct.Yosys::Macc::port_t", ptr %27, i32 0, i32 1
  %29 = call noundef i32 @_ZN5Yosys7GetSizeINS_5RTLIL7SigSpecEEEiRKT_(ptr noundef nonnull align 8 dereferenceable(64) %28)
  %30 = icmp ne i32 %29, 0
  br label %31

31:                                               ; preds = %26, %19
  %32 = phi i1 [ false, %19 ], [ %30, %26 ]
  %33 = zext i1 %32 to i8
  store i8 %33, ptr %7, align 1
  %34 = load i8, ptr %6, align 1
  %35 = trunc i8 %34 to i1
  br i1 %35, label %36, label %44

36:                                               ; preds = %31
  %37 = load ptr, ptr %4, align 8
  %38 = getelementptr inbounds %"struct.Yosys::Macc::port_t", ptr %37, i32 0, i32 0
  %39 = call noundef i32 @_ZN5Yosys7GetSizeINS_5RTLIL7SigSpecEEEiRKT_(ptr noundef nonnull align 8 dereferenceable(64) %38)
  %40 = load ptr, ptr %4, align 8
  %41 = getelementptr inbounds %"struct.Yosys::Macc::port_t", ptr %40, i32 0, i32 1
  %42 = call noundef i32 @_ZN5Yosys7GetSizeINS_5RTLIL7SigSpecEEEiRKT_(ptr noundef nonnull align 8 dereferenceable(64) %41)
  %43 = mul nsw i32 %39, %42
  br label %52

44:                                               ; preds = %31
  %45 = load ptr, ptr %4, align 8
  %46 = getelementptr inbounds %"struct.Yosys::Macc::port_t", ptr %45, i32 0, i32 0
  %47 = call noundef i32 @_ZN5Yosys7GetSizeINS_5RTLIL7SigSpecEEEiRKT_(ptr noundef nonnull align 8 dereferenceable(64) %46)
  %48 = load ptr, ptr %4, align 8
  %49 = getelementptr inbounds %"struct.Yosys::Macc::port_t", ptr %48, i32 0, i32 1
  %50 = call noundef i32 @_ZN5Yosys7GetSizeINS_5RTLIL7SigSpecEEEiRKT_(ptr noundef nonnull align 8 dereferenceable(64) %49)
  %51 = add nsw i32 %47, %50
  br label %52

52:                                               ; preds = %44, %36
  %53 = phi i32 [ %43, %36 ], [ %51, %44 ]
  store i32 %53, ptr %8, align 4
  %54 = load i8, ptr %7, align 1
  %55 = trunc i8 %54 to i1
  br i1 %55, label %56, label %64

56:                                               ; preds = %52
  %57 = load ptr, ptr %5, align 8
  %58 = getelementptr inbounds %"struct.Yosys::Macc::port_t", ptr %57, i32 0, i32 0
  %59 = call noundef i32 @_ZN5Yosys7GetSizeINS_5RTLIL7SigSpecEEEiRKT_(ptr noundef nonnull align 8 dereferenceable(64) %58)
  %60 = load ptr, ptr %5, align 8
  %61 = getelementptr inbounds %"struct.Yosys::Macc::port_t", ptr %60, i32 0, i32 1
  %62 = call noundef i32 @_ZN5Yosys7GetSizeINS_5RTLIL7SigSpecEEEiRKT_(ptr noundef nonnull align 8 dereferenceable(64) %61)
  %63 = mul nsw i32 %59, %62
  br label %72

64:                                               ; preds = %52
  %65 = load ptr, ptr %5, align 8
  %66 = getelementptr inbounds %"struct.Yosys::Macc::port_t", ptr %65, i32 0, i32 0
  %67 = call noundef i32 @_ZN5Yosys7GetSizeINS_5RTLIL7SigSpecEEEiRKT_(ptr noundef nonnull align 8 dereferenceable(64) %66)
  %68 = load ptr, ptr %5, align 8
  %69 = getelementptr inbounds %"struct.Yosys::Macc::port_t", ptr %68, i32 0, i32 1
  %70 = call noundef i32 @_ZN5Yosys7GetSizeINS_5RTLIL7SigSpecEEEiRKT_(ptr noundef nonnull align 8 dereferenceable(64) %69)
  %71 = add nsw i32 %67, %70
  br label %72

72:                                               ; preds = %64, %56
  %73 = phi i32 [ %63, %56 ], [ %71, %64 ]
  store i32 %73, ptr %9, align 4
  %74 = load i8, ptr %6, align 1
  %75 = trunc i8 %74 to i1
  %76 = zext i1 %75 to i32
  %77 = load i8, ptr %7, align 1
  %78 = trunc i8 %77 to i1
  %79 = zext i1 %78 to i32
  %80 = icmp ne i32 %76, %79
  br i1 %80, label %81, label %84

81:                                               ; preds = %72
  %82 = load i8, ptr %6, align 1
  %83 = trunc i8 %82 to i1
  store i1 %83, ptr %3, align 1
  br label %165

84:                                               ; preds = %72
  %85 = load i32, ptr %8, align 4
  %86 = load i32, ptr %9, align 4
  %87 = icmp ne i32 %85, %86
  br i1 %87, label %88, label %92

88:                                               ; preds = %84
  %89 = load i32, ptr %8, align 4
  %90 = load i32, ptr %9, align 4
  %91 = icmp sgt i32 %89, %90
  store i1 %91, ptr %3, align 1
  br label %165

92:                                               ; preds = %84
  %93 = load ptr, ptr %4, align 8
  %94 = getelementptr inbounds %"struct.Yosys::Macc::port_t", ptr %93, i32 0, i32 2
  %95 = load i8, ptr %94, align 8
  %96 = trunc i8 %95 to i1
  %97 = zext i1 %96 to i32
  %98 = load ptr, ptr %5, align 8
  %99 = getelementptr inbounds %"struct.Yosys::Macc::port_t", ptr %98, i32 0, i32 2
  %100 = load i8, ptr %99, align 8
  %101 = trunc i8 %100 to i1
  %102 = zext i1 %101 to i32
  %103 = icmp ne i32 %97, %102
  br i1 %103, label %104, label %116

104:                                              ; preds = %92
  %105 = load ptr, ptr %4, align 8
  %106 = getelementptr inbounds %"struct.Yosys::Macc::port_t", ptr %105, i32 0, i32 2
  %107 = load i8, ptr %106, align 8
  %108 = trunc i8 %107 to i1
  %109 = zext i1 %108 to i32
  %110 = load ptr, ptr %5, align 8
  %111 = getelementptr inbounds %"struct.Yosys::Macc::port_t", ptr %110, i32 0, i32 2
  %112 = load i8, ptr %111, align 8
  %113 = trunc i8 %112 to i1
  %114 = zext i1 %113 to i32
  %115 = icmp slt i32 %109, %114
  store i1 %115, ptr %3, align 1
  br label %165

116:                                              ; preds = %92
  %117 = load ptr, ptr %4, align 8
  %118 = getelementptr inbounds %"struct.Yosys::Macc::port_t", ptr %117, i32 0, i32 3
  %119 = load i8, ptr %118, align 1
  %120 = trunc i8 %119 to i1
  %121 = zext i1 %120 to i32
  %122 = load ptr, ptr %5, align 8
  %123 = getelementptr inbounds %"struct.Yosys::Macc::port_t", ptr %122, i32 0, i32 3
  %124 = load i8, ptr %123, align 1
  %125 = trunc i8 %124 to i1
  %126 = zext i1 %125 to i32
  %127 = icmp ne i32 %121, %126
  br i1 %127, label %128, label %140

128:                                              ; preds = %116
  %129 = load ptr, ptr %4, align 8
  %130 = getelementptr inbounds %"struct.Yosys::Macc::port_t", ptr %129, i32 0, i32 3
  %131 = load i8, ptr %130, align 1
  %132 = trunc i8 %131 to i1
  %133 = zext i1 %132 to i32
  %134 = load ptr, ptr %5, align 8
  %135 = getelementptr inbounds %"struct.Yosys::Macc::port_t", ptr %134, i32 0, i32 3
  %136 = load i8, ptr %135, align 1
  %137 = trunc i8 %136 to i1
  %138 = zext i1 %137 to i32
  %139 = icmp slt i32 %133, %138
  store i1 %139, ptr %3, align 1
  br label %165

140:                                              ; preds = %116
  %141 = load ptr, ptr %4, align 8
  %142 = getelementptr inbounds %"struct.Yosys::Macc::port_t", ptr %141, i32 0, i32 0
  %143 = load ptr, ptr %5, align 8
  %144 = getelementptr inbounds %"struct.Yosys::Macc::port_t", ptr %143, i32 0, i32 0
  %145 = call noundef zeroext i1 @_ZNK5Yosys5RTLIL7SigSpecneERKS1_(ptr noundef nonnull align 8 dereferenceable(64) %142, ptr noundef nonnull align 8 dereferenceable(64) %144)
  br i1 %145, label %146, label %152

146:                                              ; preds = %140
  %147 = load ptr, ptr %4, align 8
  %148 = getelementptr inbounds %"struct.Yosys::Macc::port_t", ptr %147, i32 0, i32 0
  %149 = load ptr, ptr %5, align 8
  %150 = getelementptr inbounds %"struct.Yosys::Macc::port_t", ptr %149, i32 0, i32 0
  %151 = call noundef zeroext i1 @_ZNK5Yosys5RTLIL7SigSpecltERKS1_(ptr noundef nonnull align 8 dereferenceable(64) %148, ptr noundef nonnull align 8 dereferenceable(64) %150)
  store i1 %151, ptr %3, align 1
  br label %165

152:                                              ; preds = %140
  %153 = load ptr, ptr %4, align 8
  %154 = getelementptr inbounds %"struct.Yosys::Macc::port_t", ptr %153, i32 0, i32 1
  %155 = load ptr, ptr %5, align 8
  %156 = getelementptr inbounds %"struct.Yosys::Macc::port_t", ptr %155, i32 0, i32 1
  %157 = call noundef zeroext i1 @_ZNK5Yosys5RTLIL7SigSpecneERKS1_(ptr noundef nonnull align 8 dereferenceable(64) %154, ptr noundef nonnull align 8 dereferenceable(64) %156)
  br i1 %157, label %158, label %164

158:                                              ; preds = %152
  %159 = load ptr, ptr %4, align 8
  %160 = getelementptr inbounds %"struct.Yosys::Macc::port_t", ptr %159, i32 0, i32 1
  %161 = load ptr, ptr %5, align 8
  %162 = getelementptr inbounds %"struct.Yosys::Macc::port_t", ptr %161, i32 0, i32 1
  %163 = call noundef zeroext i1 @_ZNK5Yosys5RTLIL7SigSpecltERKS1_(ptr noundef nonnull align 8 dereferenceable(64) %160, ptr noundef nonnull align 8 dereferenceable(64) %162)
  store i1 %163, ptr %3, align 1
  br label %165

164:                                              ; preds = %152
  store i1 false, ptr %3, align 1
  br label %165

165:                                              ; preds = %164, %158, %146, %128, %104, %88, %81
  %166 = load i1, ptr %3, align 1
  ret i1 %166
}