; Function Attrs: mustprogress uwtable
define internal noundef zeroext i1 @_ZN12_GLOBAL__N_111ShareWorker14cmp_macc_portsERKN5Yosys4Macc6port_tES5_(ptr noundef nonnull align 8 dereferenceable(130) %0, ptr noundef nonnull align 8 dereferenceable(130) %1) #4 align 2 {
  %3 = load i32, ptr %0, align 8
  %.not = icmp ne i32 %3, 0
  %4 = getelementptr inbounds i8, ptr %0, i64 64
  %5 = load i32, ptr %4, align 8
  %6 = icmp ne i32 %5, 0
  %7 = select i1 %.not, i1 %6, i1 false
  %8 = load i32, ptr %1, align 8
  %.not43 = icmp ne i32 %8, 0
  %9 = getelementptr inbounds i8, ptr %1, i64 64
  %10 = load i32, ptr %9, align 8
  %11 = icmp ne i32 %10, 0
  %12 = select i1 %.not43, i1 %11, i1 false
  %13 = mul nsw i32 %5, %3
  %14 = add nsw i32 %5, %3
  %15 = select i1 %7, i32 %13, i32 %14
  br i1 %12, label %18, label %16

16:                                               ; preds = %2
  %17 = add nsw i32 %10, %8
  br i1 %7, label %50, label %20

18:                                               ; preds = %2
  %19 = mul nsw i32 %10, %8
  br i1 %7, label %20, label %50

20:                                               ; preds = %16, %18
  %21 = phi i32 [ %17, %16 ], [ %19, %18 ]
  %.not45 = icmp eq i32 %15, %21
  br i1 %.not45, label %24, label %22

22:                                               ; preds = %20
  %23 = icmp sgt i32 %15, %21
  br label %50

24:                                               ; preds = %20
  %25 = getelementptr inbounds i8, ptr %0, i64 128
  %26 = load i8, ptr %25, align 8
  %27 = and i8 %26, 1
  %28 = getelementptr inbounds i8, ptr %1, i64 128
  %29 = load i8, ptr %28, align 8
  %30 = and i8 %29, 1
  %.not46 = icmp eq i8 %27, %30
  br i1 %.not46, label %33, label %31

31:                                               ; preds = %24
  %32 = icmp ult i8 %27, %30
  br label %50

33:                                               ; preds = %24
  %34 = getelementptr inbounds i8, ptr %0, i64 129
  %35 = load i8, ptr %34, align 1
  %36 = and i8 %35, 1
  %37 = getelementptr inbounds i8, ptr %1, i64 129
  %38 = load i8, ptr %37, align 1
  %39 = and i8 %38, 1
  %.not47 = icmp eq i8 %36, %39
  br i1 %.not47, label %42, label %40

40:                                               ; preds = %33
  %41 = icmp ult i8 %36, %39
  br label %50

42:                                               ; preds = %33
  %43 = tail call noundef zeroext i1 @_ZNK5Yosys5RTLIL7SigSpeceqERKS1_(ptr noundef nonnull align 8 dereferenceable(64) %0, ptr noundef nonnull align 8 dereferenceable(64) %1)
  br i1 %43, label %46, label %44

44:                                               ; preds = %42
  %45 = tail call noundef zeroext i1 @_ZNK5Yosys5RTLIL7SigSpecltERKS1_(ptr noundef nonnull align 8 dereferenceable(64) %0, ptr noundef nonnull align 8 dereferenceable(64) %1)
  br label %50

46:                                               ; preds = %42
  %47 = tail call noundef zeroext i1 @_ZNK5Yosys5RTLIL7SigSpeceqERKS1_(ptr noundef nonnull align 8 dereferenceable(64) %4, ptr noundef nonnull align 8 dereferenceable(64) %9)
  br i1 %47, label %50, label %48

48:                                               ; preds = %46
  %49 = tail call noundef zeroext i1 @_ZNK5Yosys5RTLIL7SigSpecltERKS1_(ptr noundef nonnull align 8 dereferenceable(64) %4, ptr noundef nonnull align 8 dereferenceable(64) %9)
  br label %50

50:                                               ; preds = %16, %46, %18, %48, %44, %40, %31, %22
  %.0 = phi i1 [ %23, %22 ], [ %32, %31 ], [ %41, %40 ], [ %45, %44 ], [ %49, %48 ], [ false, %18 ], [ false, %46 ], [ true, %16 ]
  ret i1 %.0
}